; Function Attrs: mustprogress uwtable
define dso_local noundef zeroext i1 @_ZNK4absl12Notification31WaitForNotificationWithDeadlineENS_4TimeE(ptr noundef nonnull align 8 dereferenceable(9) %0, i64 %1, i32 %2) local_unnamed_addr #0 align 2 {
  %4 = alloca %"class.absl::synchronization_internal::KernelTimeout", align 8
  %5 = alloca %"class.absl::Condition", align 8
  tail call void @AbslInternalTraceWait(ptr noundef nonnull %0, i32 noundef 2)
  %6 = getelementptr inbounds nuw i8, ptr %0, i64 8
  %7 = load atomic i8, ptr %6 acquire, align 8
  %8 = trunc i8 %7 to i1
  br i1 %8, label %.thread, label %9

9:                                                ; preds = %3
  call void @llvm.lifetime.start.p0(i64 32, ptr nonnull %5) #8
  %10 = getelementptr inbounds nuw i8, ptr %5, i64 16
  %11 = getelementptr inbounds nuw i8, ptr %5, i64 8
  store i64 0, ptr %11, align 8
  store ptr @_ZN4absl9Condition19CastAndCallFunctionIKSt6atomicIbEEEbPKS0_, ptr %10, align 8, !tbaa !4
  %12 = getelementptr inbounds nuw i8, ptr %5, i64 24
  store ptr %6, ptr %12, align 8, !tbaa !9
  store ptr @_ZN4absl12Notification23HasBeenNotifiedInternalEPKSt6atomicIbE, ptr %5, align 8
  call void @llvm.lifetime.start.p0(i64 8, ptr nonnull %4)
  call void @_ZN4absl24synchronization_internal13KernelTimeoutC1ENS_4TimeE(ptr noundef nonnull align 8 dereferenceable(8) %4, i64 %1, i32 %2)
  %13 = load i64, ptr %4, align 8
  %14 = call noundef zeroext i1 @_ZN4absl5Mutex14LockWhenCommonERKNS_9ConditionENS_24synchronization_internal13KernelTimeoutEb(ptr noundef nonnull align 8 dereferenceable(8) %0, ptr noundef nonnull align 8 dereferenceable(32) %5, i64 %13, i1 noundef zeroext true)
  call void @llvm.lifetime.end.p0(i64 8, ptr nonnull %4)
  call void @llvm.lifetime.end.p0(i64 32, ptr nonnull %5) #8
  call void @_ZN4absl5Mutex6UnlockEv(ptr noundef nonnull align 8 dereferenceable(8) %0)
  %spec.select12 = select i1 %14, ptr %0, ptr null
  br label %.thread

.thread:                                          ; preds = %9, %3
  %.0.in10 = phi i1 [ true, %3 ], [ %14, %9 ]
  %15 = phi ptr [ %0, %3 ], [ %spec.select12, %9 ]
  call void @AbslInternalTraceContinue(ptr noundef %15, i32 noundef 2)
  ret i1 %.0.in10
}